; Function Attrs: mustprogress nounwind uwtable
define hidden noundef zeroext i1 @_ZN22G1ConcurrentMarkThread40subphase_delay_to_keep_mmu_before_remarkEv(ptr noundef nonnull align 8 dereferenceable(948) %0) local_unnamed_addr #0 align 2 {
  tail call void @_ZN22G1ConcurrentMarkThread17delay_to_keep_mmuEb(ptr noundef nonnull align 8 dereferenceable(948) %0, i1 noundef zeroext true)
  %2 = getelementptr inbounds i8, ptr %0, i64 936
  %3 = load ptr, ptr %2, align 8
  %4 = getelementptr inbounds i8, ptr %3, i64 1494
  %5 = load volatile i8, ptr %4, align 2
  %6 = trunc i8 %5 to i1
  ret i1 %6
}